target datalayout = "e-m:e-p270:32:32-p271:32:32-p272:64:64-i64:64-i128:128-f80:128-n8:16:32:64-S128"
target triple = "x86_64-pc-linux-gnu"

%struct.lhash_st = type { i64, ptr, i64, i32, ptr, ptr }
%struct.lhash_item_st = type { ptr, ptr, i32 }

; Function Attrs: nounwind uwtable
define internal void @lh_rebucket(ptr noundef %0, i64 noundef %1) #0 {
  %3 = alloca ptr, align 8
  %4 = alloca i64, align 8
  %5 = alloca ptr, align 8
  %6 = alloca ptr, align 8
  %7 = alloca ptr, align 8
  %8 = alloca i64, align 8
  %9 = alloca i64, align 8
  %10 = alloca i32, align 4
  %11 = alloca i64, align 8
  store ptr %0, ptr %3, align 8, !tbaa !10
  store i64 %1, ptr %4, align 8, !tbaa !22
  call void @llvm.lifetime.start.p0(i64 8, ptr %5) #6
  call void @llvm.lifetime.start.p0(i64 8, ptr %6) #6
  call void @llvm.lifetime.start.p0(i64 8, ptr %7) #6
  call void @llvm.lifetime.start.p0(i64 8, ptr %8) #6
  call void @llvm.lifetime.start.p0(i64 8, ptr %9) #6
  %12 = load i64, ptr %4, align 8, !tbaa !22
  %13 = mul i64 8, %12
  store i64 %13, ptr %9, align 8, !tbaa !22
  %14 = load i64, ptr %9, align 8, !tbaa !22
  %15 = udiv i64 %14, 8
  %16 = load i64, ptr %4, align 8, !tbaa !22
  %17 = icmp ne i64 %15, %16
  br i1 %17, label %18, label %19

18:                                               ; preds = %2
  store i32 1, ptr %10, align 4
  br label %80

19:                                               ; preds = %2
  %20 = load i64, ptr %9, align 8, !tbaa !22
  %21 = call noalias ptr @malloc(i64 noundef %20) #7
  store ptr %21, ptr %5, align 8, !tbaa !34
  %22 = load ptr, ptr %5, align 8, !tbaa !34
  %23 = icmp eq ptr %22, null
  br i1 %23, label %24, label %25

24:                                               ; preds = %19
  store i32 1, ptr %10, align 4
  br label %80

25:                                               ; preds = %19
  %26 = load ptr, ptr %5, align 8, !tbaa !34
  %27 = load i64, ptr %9, align 8, !tbaa !22
  call void @llvm.memset.p0.i64(ptr align 8 %26, i8 0, i64 %27, i1 false)
  store i64 0, ptr %8, align 8, !tbaa !22
  br label %28

28:                                               ; preds = %67, %25
  %29 = load i64, ptr %8, align 8, !tbaa !22
  %30 = load ptr, ptr %3, align 8, !tbaa !10
  %31 = getelementptr inbounds nuw %struct.lhash_st, ptr %30, i32 0, i32 2
  %32 = load i64, ptr %31, align 8, !tbaa !12
  %33 = icmp ult i64 %29, %32
  br i1 %33, label %34, label %70

34:                                               ; preds = %28
  %35 = load ptr, ptr %3, align 8, !tbaa !10
  %36 = getelementptr inbounds nuw %struct.lhash_st, ptr %35, i32 0, i32 1
  %37 = load ptr, ptr %36, align 8, !tbaa !17
  %38 = load i64, ptr %8, align 8, !tbaa !22
  %39 = getelementptr inbounds nuw ptr, ptr %37, i64 %38
  %40 = load ptr, ptr %39, align 8, !tbaa !27
  store ptr %40, ptr %6, align 8, !tbaa !27
  br label %41

41:                                               ; preds = %64, %34
  %42 = load ptr, ptr %6, align 8, !tbaa !27
  %43 = icmp ne ptr %42, null
  br i1 %43, label %44, label %66

44:                                               ; preds = %41
  call void @llvm.lifetime.start.p0(i64 8, ptr %11) #6
  %45 = load ptr, ptr %6, align 8, !tbaa !27
  %46 = getelementptr inbounds nuw %struct.lhash_item_st, ptr %45, i32 0, i32 2
  %47 = load i32, ptr %46, align 8, !tbaa !39
  %48 = zext i32 %47 to i64
  %49 = load i64, ptr %4, align 8, !tbaa !22
  %50 = urem i64 %48, %49
  store i64 %50, ptr %11, align 8, !tbaa !22
  %51 = load ptr, ptr %6, align 8, !tbaa !27
  %52 = getelementptr inbounds nuw %struct.lhash_item_st, ptr %51, i32 0, i32 1
  %53 = load ptr, ptr %52, align 8, !tbaa !29
  store ptr %53, ptr %7, align 8, !tbaa !27
  %54 = load ptr, ptr %5, align 8, !tbaa !34
  %55 = load i64, ptr %11, align 8, !tbaa !22
  %56 = getelementptr inbounds nuw ptr, ptr %54, i64 %55
  %57 = load ptr, ptr %56, align 8, !tbaa !27
  %58 = load ptr, ptr %6, align 8, !tbaa !27
  %59 = getelementptr inbounds nuw %struct.lhash_item_st, ptr %58, i32 0, i32 1
  store ptr %57, ptr %59, align 8, !tbaa !29
  %60 = load ptr, ptr %6, align 8, !tbaa !27
  %61 = load ptr, ptr %5, align 8, !tbaa !34
  %62 = load i64, ptr %11, align 8, !tbaa !22
  %63 = getelementptr inbounds nuw ptr, ptr %61, i64 %62
  store ptr %60, ptr %63, align 8, !tbaa !27
  call void @llvm.lifetime.end.p0(i64 8, ptr %11) #6
  br label %64

64:                                               ; preds = %44
  %65 = load ptr, ptr %7, align 8, !tbaa !27
  store ptr %65, ptr %6, align 8, !tbaa !27
  br label %41, !llvm.loop !43

66:                                               ; preds = %41
  br label %67

67:                                               ; preds = %66
  %68 = load i64, ptr %8, align 8, !tbaa !22
  %69 = add i64 %68, 1
  store i64 %69, ptr %8, align 8, !tbaa !22
  br label %28, !llvm.loop !44

70:                                               ; preds = %28
  %71 = load ptr, ptr %3, align 8, !tbaa !10
  %72 = getelementptr inbounds nuw %struct.lhash_st, ptr %71, i32 0, i32 1
  %73 = load ptr, ptr %72, align 8, !tbaa !17
  call void @free(ptr noundef %73) #6
  %74 = load i64, ptr %4, align 8, !tbaa !22
  %75 = load ptr, ptr %3, align 8, !tbaa !10
  %76 = getelementptr inbounds nuw %struct.lhash_st, ptr %75, i32 0, i32 2
  store i64 %74, ptr %76, align 8, !tbaa !12
  %77 = load ptr, ptr %5, align 8, !tbaa !34
  %78 = load ptr, ptr %3, align 8, !tbaa !10
  %79 = getelementptr inbounds nuw %struct.lhash_st, ptr %78, i32 0, i32 1
  store ptr %77, ptr %79, align 8, !tbaa !17
  store i32 0, ptr %10, align 4
  br label %80

80:                                               ; preds = %70, %24, %18
  call void @llvm.lifetime.end.p0(i64 8, ptr %9) #6
  call void @llvm.lifetime.end.p0(i64 8, ptr %8) #6
  call void @llvm.lifetime.end.p0(i64 8, ptr %7) #6
  call void @llvm.lifetime.end.p0(i64 8, ptr %6) #6
  call void @llvm.lifetime.end.p0(i64 8, ptr %5) #6
  %81 = load i32, ptr %10, align 4
  switch i32 %81, label %83 [
    i32 0, label %82
    i32 1, label %82
  ]

82:                                               ; preds = %80, %80
  ret void

83:                                               ; preds = %80
  unreachable
}

; Function Attrs: nounwind uwtable
define internal void @lh_maybe_resize(ptr noundef %0) #0 {
  %2 = alloca ptr, align 8
  %3 = alloca i64, align 8
  %4 = alloca i32, align 4
  %5 = alloca i64, align 8
  %6 = alloca i64, align 8
  store ptr %0, ptr %2, align 8, !tbaa !10
  call void @llvm.lifetime.start.p0(i64 8, ptr %3) #6
  %7 = load ptr, ptr %2, align 8, !tbaa !10
  %8 = getelementptr inbounds nuw %struct.lhash_st, ptr %7, i32 0, i32 3
  %9 = load i32, ptr %8, align 8, !tbaa !40
  %10 = icmp ugt i32 %9, 0
  br i1 %10, label %11, label %12

11:                                               ; preds = %1
  store i32 1, ptr %4, align 4
  br label %57

12:                                               ; preds = %1
  %13 = load ptr, ptr %2, align 8, !tbaa !10
  %14 = getelementptr inbounds nuw %struct.lhash_st, ptr %13, i32 0, i32 0
  %15 = load i64, ptr %14, align 8, !tbaa !33
  %16 = load ptr, ptr %2, align 8, !tbaa !10
  %17 = getelementptr inbounds nuw %struct.lhash_st, ptr %16, i32 0, i32 2
  %18 = load i64, ptr %17, align 8, !tbaa !12
  %19 = udiv i64 %15, %18
  store i64 %19, ptr %3, align 8, !tbaa !22
  %20 = load i64, ptr %3, align 8, !tbaa !22
  %21 = icmp ugt i64 %20, 2
  br i1 %21, label %22, label %36

22:                                               ; preds = %12
  call void @llvm.lifetime.start.p0(i64 8, ptr %5) #6
  %23 = load ptr, ptr %2, align 8, !tbaa !10
  %24 = getelementptr inbounds nuw %struct.lhash_st, ptr %23, i32 0, i32 2
  %25 = load i64, ptr %24, align 8, !tbaa !12
  %26 = mul i64 %25, 2
  store i64 %26, ptr %5, align 8, !tbaa !22
  %27 = load i64, ptr %5, align 8, !tbaa !22
  %28 = load ptr, ptr %2, align 8, !tbaa !10
  %29 = getelementptr inbounds nuw %struct.lhash_st, ptr %28, i32 0, i32 2
  %30 = load i64, ptr %29, align 8, !tbaa !12
  %31 = icmp ugt i64 %27, %30
  br i1 %31, label %32, label %35

32:                                               ; preds = %22
  %33 = load ptr, ptr %2, align 8, !tbaa !10
  %34 = load i64, ptr %5, align 8, !tbaa !22
  call void @lh_rebucket(ptr noundef %33, i64 noundef %34)
  br label %35

35:                                               ; preds = %32, %22
  call void @llvm.lifetime.end.p0(i64 8, ptr %5) #6
  br label %56

36:                                               ; preds = %12
  %37 = load i64, ptr %3, align 8, !tbaa !22
  %38 = icmp ult i64 %37, 1
  br i1 %38, label %39, label %55

39:                                               ; preds = %36
  %40 = load ptr, ptr %2, align 8, !tbaa !10
  %41 = getelementptr inbounds nuw %struct.lhash_st, ptr %40, i32 0, i32 2
  %42 = load i64, ptr %41, align 8, !tbaa !12
  %43 = icmp ugt i64 %42, 16
  br i1 %43, label %44, label %55

44:                                               ; preds = %39
  call void @llvm.lifetime.start.p0(i64 8, ptr %6) #6
  %45 = load ptr, ptr %2, align 8, !tbaa !10
  %46 = getelementptr inbounds nuw %struct.lhash_st, ptr %45, i32 0, i32 2
  %47 = load i64, ptr %46, align 8, !tbaa !12
  %48 = udiv i64 %47, 2
  store i64 %48, ptr %6, align 8, !tbaa !22
  %49 = load i64, ptr %6, align 8, !tbaa !22
  %50 = icmp ult i64 %49, 16
  br i1 %50, label %51, label %52

51:                                               ; preds = %44
  store i64 16, ptr %6, align 8, !tbaa !22
  br label %52

52:                                               ; preds = %51, %44
  %53 = load ptr, ptr %2, align 8, !tbaa !10
  %54 = load i64, ptr %6, align 8, !tbaa !22
  call void @lh_rebucket(ptr noundef %53, i64 noundef %54)
  call void @llvm.lifetime.end.p0(i64 8, ptr %6) #6
  br label %55

55:                                               ; preds = %52, %39, %36
  br label %56

56:                                               ; preds = %55, %35
  store i32 0, ptr %4, align 4
  br label %57

57:                                               ; preds = %56, %11
  call void @llvm.lifetime.end.p0(i64 8, ptr %3) #6
  %58 = load i32, ptr %4, align 4
  switch i32 %58, label %60 [
    i32 0, label %59
    i32 1, label %59
  ]

59:                                               ; preds = %57, %57
  ret void

60:                                               ; preds = %57
  unreachable
}