; Function Attrs: nounwind uwtable
define internal fastcc void @lh_maybe_resize(ptr noundef captures(none) %0) unnamed_addr #5 {
  %2 = getelementptr inbounds nuw i8, ptr %0, i64 24
  %3 = load i32, ptr %2, align 8, !tbaa !31
  %.not = icmp eq i32 %3, 0
  br i1 %.not, label %4, label %lh_rebucket.exit

4:                                                ; preds = %1
  %5 = load i64, ptr %0, align 8, !tbaa !26
  %6 = getelementptr inbounds nuw i8, ptr %0, i64 16
  %7 = load i64, ptr %6, align 8, !tbaa !6
  %8 = udiv i64 %5, %7
  %9 = icmp ugt i64 %8, 2
  br i1 %9, label %10, label %29

10:                                               ; preds = %4
  %11 = icmp sgt i64 %7, 0
  br i1 %11, label %12, label %lh_rebucket.exit

12:                                               ; preds = %10
  %13 = shl nuw i64 %7, 1
  %.not.i = icmp samesign ult i64 %7, 1152921504606846976
  br i1 %.not.i, label %14, label %lh_rebucket.exit

14:                                               ; preds = %12
  %15 = shl nuw i64 %7, 4
  %calloc.i = tail call ptr @calloc(i64 1, i64 %15)
  %16 = icmp eq ptr %calloc.i, null
  br i1 %16, label %lh_rebucket.exit, label %17

17:                                               ; preds = %14
  %.phi.trans.insert.i = getelementptr inbounds nuw i8, ptr %0, i64 8
  %.pre.i = load ptr, ptr %.phi.trans.insert.i, align 8, !tbaa !14
  br label %.lr.ph35.i

.lr.ph35.i:                                       ; preds = %17, %._crit_edge.i
  %.02733.i = phi i64 [ %28, %._crit_edge.i ], [ 0, %17 ]
  %18 = getelementptr inbounds nuw ptr, ptr %.pre.i, i64 %.02733.i
  %19 = load ptr, ptr %18, align 8, !tbaa !20
  %.not3031.i = icmp eq ptr %19, null
  br i1 %.not3031.i, label %._crit_edge.i, label %.lr.ph.i

.lr.ph.i:                                         ; preds = %.lr.ph35.i, %.lr.ph.i
  %.032.i = phi ptr [ %25, %.lr.ph.i ], [ %19, %.lr.ph35.i ]
  %20 = getelementptr inbounds nuw i8, ptr %.032.i, i64 16
  %21 = load i32, ptr %20, align 8, !tbaa !30
  %22 = zext i32 %21 to i64
  %23 = urem i64 %22, %13
  %24 = getelementptr inbounds nuw i8, ptr %.032.i, i64 8
  %25 = load ptr, ptr %24, align 8, !tbaa !22
  %26 = getelementptr inbounds nuw ptr, ptr %calloc.i, i64 %23
  %27 = load ptr, ptr %26, align 8, !tbaa !20
  store ptr %27, ptr %24, align 8, !tbaa !22
  store ptr %.032.i, ptr %26, align 8, !tbaa !20
  %.not30.i = icmp eq ptr %25, null
  br i1 %.not30.i, label %._crit_edge.i, label %.lr.ph.i, !llvm.loop !32

._crit_edge.i:                                    ; preds = %.lr.ph.i, %.lr.ph35.i
  %28 = add nuw nsw i64 %.02733.i, 1
  %exitcond.not.i = icmp eq i64 %28, %7
  br i1 %exitcond.not.i, label %._crit_edge36.i, label %.lr.ph35.i, !llvm.loop !33

._crit_edge36.i:                                  ; preds = %._crit_edge.i
  tail call void @free(ptr noundef %.pre.i) #9
  store i64 %13, ptr %6, align 8, !tbaa !6
  store ptr %calloc.i, ptr %.phi.trans.insert.i, align 8, !tbaa !14
  br label %lh_rebucket.exit

29:                                               ; preds = %4
  %30 = icmp ugt i64 %7, %5
  %31 = icmp ugt i64 %7, 16
  %or.cond = and i1 %30, %31
  br i1 %or.cond, label %32, label %lh_rebucket.exit

32:                                               ; preds = %29
  %33 = lshr i64 %7, 1
  %spec.store.select = tail call i64 @llvm.umax.i64(i64 %33, i64 16)
  %.not.i16 = icmp ult i64 %7, 4611686018427387904
  br i1 %.not.i16, label %34, label %lh_rebucket.exit

34:                                               ; preds = %32
  %35 = shl nuw i64 %spec.store.select, 3
  %calloc.i17 = tail call ptr @calloc(i64 1, i64 %35)
  %36 = icmp eq ptr %calloc.i17, null
  br i1 %36, label %lh_rebucket.exit, label %37

37:                                               ; preds = %34
  %.phi.trans.insert.i19 = getelementptr inbounds nuw i8, ptr %0, i64 8
  %.pre.i20 = load ptr, ptr %.phi.trans.insert.i19, align 8, !tbaa !14
  br label %.lr.ph35.i21

.lr.ph35.i21:                                     ; preds = %37, %._crit_edge.i27
  %.02733.i22 = phi i64 [ %48, %._crit_edge.i27 ], [ 0, %37 ]
  %38 = getelementptr inbounds nuw ptr, ptr %.pre.i20, i64 %.02733.i22
  %39 = load ptr, ptr %38, align 8, !tbaa !20
  %.not3031.i23 = icmp eq ptr %39, null
  br i1 %.not3031.i23, label %._crit_edge.i27, label %.lr.ph.i24

.lr.ph.i24:                                       ; preds = %.lr.ph35.i21, %.lr.ph.i24
  %.032.i25 = phi ptr [ %45, %.lr.ph.i24 ], [ %39, %.lr.ph35.i21 ]
  %40 = getelementptr inbounds nuw i8, ptr %.032.i25, i64 16
  %41 = load i32, ptr %40, align 8, !tbaa !30
  %42 = zext i32 %41 to i64
  %43 = urem i64 %42, %spec.store.select
  %44 = getelementptr inbounds nuw i8, ptr %.032.i25, i64 8
  %45 = load ptr, ptr %44, align 8, !tbaa !22
  %46 = getelementptr inbounds nuw ptr, ptr %calloc.i17, i64 %43
  %47 = load ptr, ptr %46, align 8, !tbaa !20
  store ptr %47, ptr %44, align 8, !tbaa !22
  store ptr %.032.i25, ptr %46, align 8, !tbaa !20
  %.not30.i26 = icmp eq ptr %45, null
  br i1 %.not30.i26, label %._crit_edge.i27, label %.lr.ph.i24, !llvm.loop !32

._crit_edge.i27:                                  ; preds = %.lr.ph.i24, %.lr.ph35.i21
  %48 = add nuw nsw i64 %.02733.i22, 1
  %exitcond.not.i28 = icmp eq i64 %48, %7
  br i1 %exitcond.not.i28, label %._crit_edge36.i29, label %.lr.ph35.i21, !llvm.loop !33

._crit_edge36.i29:                                ; preds = %._crit_edge.i27
  tail call void @free(ptr noundef %.pre.i20) #9
  store i64 %spec.store.select, ptr %6, align 8, !tbaa !6
  store ptr %calloc.i17, ptr %.phi.trans.insert.i19, align 8, !tbaa !14
  br label %lh_rebucket.exit

lh_rebucket.exit:                                 ; preds = %._crit_edge36.i29, %34, %32, %._crit_edge36.i, %14, %12, %29, %10, %1
  ret void
}